target datalayout = "e-m:e-p270:32:32-p271:32:32-p272:64:64-i64:64-i128:128-f80:128-n8:16:32:64-S128"
target triple = "x86_64-pc-linux-gnu"

%struct._dumpOptions = type { %struct._connParams, i32, i32, i8, ptr, i32, i32, i32, i32, i32, i32, i32, i32, i32, i32, i32, i32, i32, i32, i32, i32, i32, i8, i32, i32, i8, i8, i32, ptr, i32, i32, i8, i8 }
%struct._connParams = type { ptr, ptr, ptr, ptr, i32, ptr }

; Function Attrs: nounwind uwtable
define dso_local void @InitDumpOptions(ptr noundef %0) #0 {
  %2 = alloca ptr, align 8
  store ptr %0, ptr %2, align 8
  %3 = load ptr, ptr %2, align 8
  call void @llvm.memset.p0.i64(ptr align 8 %3, i8 0, i64 184, i1 false)
  %4 = load ptr, ptr %2, align 8
  %5 = getelementptr inbounds nuw %struct._dumpOptions, ptr %4, i32 0, i32 22
  store i8 1, ptr %5, align 4
  %6 = load ptr, ptr %2, align 8
  %7 = getelementptr inbounds nuw %struct._dumpOptions, ptr %6, i32 0, i32 0
  %8 = getelementptr inbounds nuw %struct._connParams, ptr %7, i32 0, i32 4
  store i32 0, ptr %8, align 8
  %9 = load ptr, ptr %2, align 8
  %10 = getelementptr inbounds nuw %struct._dumpOptions, ptr %9, i32 0, i32 2
  store i32 255, ptr %10, align 4
  %11 = load ptr, ptr %2, align 8
  %12 = getelementptr inbounds nuw %struct._dumpOptions, ptr %11, i32 0, i32 31
  store i8 1, ptr %12, align 8
  %13 = load ptr, ptr %2, align 8
  %14 = getelementptr inbounds nuw %struct._dumpOptions, ptr %13, i32 0, i32 32
  store i8 1, ptr %14, align 1
  ret void
}

; Function Attrs: nounwind uwtable
define dso_local ptr @NewDumpOptions() #0 {
  %1 = alloca ptr, align 8
  call void @llvm.lifetime.start.p0(i64 8, ptr %1) #11
  %2 = call ptr @pg_malloc(i64 noundef 184)
  store ptr %2, ptr %1, align 8
  %3 = load ptr, ptr %1, align 8
  call void @InitDumpOptions(ptr noundef %3)
  %4 = load ptr, ptr %1, align 8
  call void @llvm.lifetime.end.p0(i64 8, ptr %1) #11
  ret ptr %4
}