; Function Attrs: nounwind uwtable
define dso_local noundef ptr @NewDumpOptions() local_unnamed_addr #0 {
  %1 = tail call ptr @pg_malloc(i64 noundef 184) #22
  tail call void @llvm.memset.p0.i64(ptr noundef nonnull align 8 dereferenceable(184) %1, i8 0, i64 184, i1 false)
  %2 = getelementptr inbounds nuw i8, ptr %1, i64 140
  store i8 1, ptr %2, align 4
  %3 = getelementptr inbounds nuw i8, ptr %1, i64 52
  store i32 255, ptr %3, align 4
  %4 = getelementptr inbounds nuw i8, ptr %1, i64 176
  store i8 1, ptr %4, align 8
  %5 = getelementptr inbounds nuw i8, ptr %1, i64 177
  store i8 1, ptr %5, align 1
  ret ptr %1
}